target datalayout = "e-m:e-p270:32:32-p271:32:32-p272:64:64-i64:64-i128:128-f80:128-n8:16:32:64-S128"
target triple = "x86_64-pc-linux-gnu"

; Function Attrs: nounwind uwtable
define internal ptr @php_ap_getword(ptr noundef %0, ptr noundef %1, i8 noundef signext %2) #0 {
  %4 = alloca ptr, align 8
  %5 = alloca ptr, align 8
  %6 = alloca ptr, align 8
  %7 = alloca i8, align 1
  %8 = alloca ptr, align 8
  %9 = alloca i8, align 1
  %10 = alloca ptr, align 8
  %11 = alloca i32, align 4
  store ptr %0, ptr %5, align 8, !tbaa !58
  store ptr %1, ptr %6, align 8, !tbaa !103
  store i8 %2, ptr %7, align 1, !tbaa !33
  call void @llvm.lifetime.start.p0(i64 8, ptr %8) #15
  %12 = load ptr, ptr %6, align 8, !tbaa !103
  %13 = load ptr, ptr %12, align 8, !tbaa !41
  store ptr %13, ptr %8, align 8, !tbaa !41
  call void @llvm.lifetime.start.p0(i64 1, ptr %9) #15
  call void @llvm.lifetime.start.p0(i64 8, ptr %10) #15
  br label %14

14:                                               ; preds = %91, %3
  %15 = load ptr, ptr %8, align 8, !tbaa !41
  %16 = load i8, ptr %15, align 1, !tbaa !33
  %17 = sext i8 %16 to i32
  %18 = icmp ne i32 %17, 0
  br i1 %18, label %19, label %26

19:                                               ; preds = %14
  %20 = load ptr, ptr %8, align 8, !tbaa !41
  %21 = load i8, ptr %20, align 1, !tbaa !33
  %22 = sext i8 %21 to i32
  %23 = load i8, ptr %7, align 1, !tbaa !33
  %24 = sext i8 %23 to i32
  %25 = icmp ne i32 %22, %24
  br label %26

26:                                               ; preds = %19, %14
  %27 = phi i1 [ false, %14 ], [ %25, %19 ]
  br i1 %27, label %28, label %92

28:                                               ; preds = %26
  %29 = load ptr, ptr %8, align 8, !tbaa !41
  %30 = load i8, ptr %29, align 1, !tbaa !33
  store i8 %30, ptr %9, align 1, !tbaa !33
  %31 = sext i8 %30 to i32
  %32 = icmp eq i32 %31, 34
  br i1 %32, label %37, label %33

33:                                               ; preds = %28
  %34 = load i8, ptr %9, align 1, !tbaa !33
  %35 = sext i8 %34 to i32
  %36 = icmp eq i32 %35, 39
  br i1 %36, label %37, label %88

37:                                               ; preds = %33, %28
  %38 = load ptr, ptr %8, align 8, !tbaa !41
  %39 = getelementptr inbounds nuw i8, ptr %38, i32 1
  store ptr %39, ptr %8, align 8, !tbaa !41
  br label %40

40:                                               ; preds = %79, %37
  %41 = load ptr, ptr %8, align 8, !tbaa !41
  %42 = load i8, ptr %41, align 1, !tbaa !33
  %43 = sext i8 %42 to i32
  %44 = icmp ne i32 %43, 0
  br i1 %44, label %45, label %52

45:                                               ; preds = %40
  %46 = load ptr, ptr %8, align 8, !tbaa !41
  %47 = load i8, ptr %46, align 1, !tbaa !33
  %48 = sext i8 %47 to i32
  %49 = load i8, ptr %9, align 1, !tbaa !33
  %50 = sext i8 %49 to i32
  %51 = icmp ne i32 %48, %50
  br label %52

52:                                               ; preds = %45, %40
  %53 = phi i1 [ false, %40 ], [ %51, %45 ]
  br i1 %53, label %54, label %80

54:                                               ; preds = %52
  %55 = load ptr, ptr %8, align 8, !tbaa !41
  %56 = load i8, ptr %55, align 1, !tbaa !33
  %57 = sext i8 %56 to i32
  %58 = icmp eq i32 %57, 92
  br i1 %58, label %59, label %76

59:                                               ; preds = %54
  %60 = load ptr, ptr %8, align 8, !tbaa !41
  %61 = getelementptr inbounds i8, ptr %60, i64 1
  %62 = load i8, ptr %61, align 1, !tbaa !33
  %63 = sext i8 %62 to i32
  %64 = icmp ne i32 %63, 0
  br i1 %64, label %65, label %76

65:                                               ; preds = %59
  %66 = load ptr, ptr %8, align 8, !tbaa !41
  %67 = getelementptr inbounds i8, ptr %66, i64 1
  %68 = load i8, ptr %67, align 1, !tbaa !33
  %69 = sext i8 %68 to i32
  %70 = load i8, ptr %9, align 1, !tbaa !33
  %71 = sext i8 %70 to i32
  %72 = icmp eq i32 %69, %71
  br i1 %72, label %73, label %76

73:                                               ; preds = %65
  %74 = load ptr, ptr %8, align 8, !tbaa !41
  %75 = getelementptr inbounds i8, ptr %74, i64 2
  store ptr %75, ptr %8, align 8, !tbaa !41
  br label %79

76:                                               ; preds = %65, %59, %54
  %77 = load ptr, ptr %8, align 8, !tbaa !41
  %78 = getelementptr inbounds nuw i8, ptr %77, i32 1
  store ptr %78, ptr %8, align 8, !tbaa !41
  br label %79

79:                                               ; preds = %76, %73
  br label %40

80:                                               ; preds = %52
  %81 = load ptr, ptr %8, align 8, !tbaa !41
  %82 = load i8, ptr %81, align 1, !tbaa !33
  %83 = icmp ne i8 %82, 0
  br i1 %83, label %84, label %87

84:                                               ; preds = %80
  %85 = load ptr, ptr %8, align 8, !tbaa !41
  %86 = getelementptr inbounds nuw i8, ptr %85, i32 1
  store ptr %86, ptr %8, align 8, !tbaa !41
  br label %87

87:                                               ; preds = %84, %80
  br label %91

88:                                               ; preds = %33
  %89 = load ptr, ptr %8, align 8, !tbaa !41
  %90 = getelementptr inbounds nuw i8, ptr %89, i32 1
  store ptr %90, ptr %8, align 8, !tbaa !41
  br label %91

91:                                               ; preds = %88, %87
  br label %14

92:                                               ; preds = %26
  %93 = load ptr, ptr %8, align 8, !tbaa !41
  %94 = load i8, ptr %93, align 1, !tbaa !33
  %95 = sext i8 %94 to i32
  %96 = icmp eq i32 %95, 0
  br i1 %96, label %97, label %108

97:                                               ; preds = %92
  %98 = load ptr, ptr %6, align 8, !tbaa !103
  %99 = load ptr, ptr %98, align 8, !tbaa !41
  %100 = call noalias ptr @_estrdup(ptr noundef %99)
  store ptr %100, ptr %10, align 8, !tbaa !41
  %101 = load ptr, ptr %6, align 8, !tbaa !103
  %102 = load ptr, ptr %101, align 8, !tbaa !41
  %103 = call i64 @strlen(ptr noundef %102) #16
  %104 = load ptr, ptr %6, align 8, !tbaa !103
  %105 = load ptr, ptr %104, align 8, !tbaa !41
  %106 = getelementptr inbounds nuw i8, ptr %105, i64 %103
  store ptr %106, ptr %104, align 8, !tbaa !41
  %107 = load ptr, ptr %10, align 8, !tbaa !41
  store ptr %107, ptr %4, align 8
  store i32 1, ptr %11, align 4
  br label %132

108:                                              ; preds = %92
  %109 = load ptr, ptr %6, align 8, !tbaa !103
  %110 = load ptr, ptr %109, align 8, !tbaa !41
  %111 = load ptr, ptr %8, align 8, !tbaa !41
  %112 = load ptr, ptr %6, align 8, !tbaa !103
  %113 = load ptr, ptr %112, align 8, !tbaa !41
  %114 = ptrtoint ptr %111 to i64
  %115 = ptrtoint ptr %113 to i64
  %116 = sub i64 %114, %115
  %117 = call noalias ptr @_estrndup(ptr noundef %110, i64 noundef %116)
  store ptr %117, ptr %10, align 8, !tbaa !41
  br label %118

118:                                              ; preds = %125, %108
  %119 = load ptr, ptr %8, align 8, !tbaa !41
  %120 = load i8, ptr %119, align 1, !tbaa !33
  %121 = sext i8 %120 to i32
  %122 = load i8, ptr %7, align 1, !tbaa !33
  %123 = sext i8 %122 to i32
  %124 = icmp eq i32 %121, %123
  br i1 %124, label %125, label %128

125:                                              ; preds = %118
  %126 = load ptr, ptr %8, align 8, !tbaa !41
  %127 = getelementptr inbounds nuw i8, ptr %126, i32 1
  store ptr %127, ptr %8, align 8, !tbaa !41
  br label %118

128:                                              ; preds = %118
  %129 = load ptr, ptr %8, align 8, !tbaa !41
  %130 = load ptr, ptr %6, align 8, !tbaa !103
  store ptr %129, ptr %130, align 8, !tbaa !41
  %131 = load ptr, ptr %10, align 8, !tbaa !41
  store ptr %131, ptr %4, align 8
  store i32 1, ptr %11, align 4
  br label %132

132:                                              ; preds = %128, %97
  call void @llvm.lifetime.end.p0(i64 8, ptr %10) #15
  call void @llvm.lifetime.end.p0(i64 1, ptr %9) #15
  call void @llvm.lifetime.end.p0(i64 8, ptr %8) #15
  %133 = load ptr, ptr %4, align 8
  ret ptr %133
}