; Function Attrs: nounwind uwtable
define internal noalias ptr @php_ap_getword(ptr readnone captures(none) %0, ptr noundef captures(none) %1, i8 noundef signext %2) #0 {
  %4 = load ptr, ptr %1, align 8, !tbaa !62
  %5 = load i8, ptr %4, align 1, !tbaa !32
  %.not53 = icmp eq i8 %5, 0
  %.not4154 = icmp eq i8 %5, %2
  %or.cond4655 = or i1 %.not53, %.not4154
  br i1 %or.cond4655, label %.critedge, label %.lr.ph57

.lr.ph57:                                         ; preds = %3, %22
  %6 = phi i8 [ %23, %22 ], [ %5, %3 ]
  %.03756 = phi ptr [ %.3, %22 ], [ %4, %3 ]
  switch i8 %6, label %20 [
    i8 39, label %7
    i8 34, label %7
  ]

7:                                                ; preds = %.lr.ph57, %.lr.ph57
  %8 = getelementptr inbounds nuw i8, ptr %.03756, i64 1
  %9 = load i8, ptr %8, align 1, !tbaa !32
  %.not4248 = icmp eq i8 %9, 0
  %.not4349 = icmp eq i8 %9, %6
  %or.cond50 = or i1 %.not4248, %.not4349
  br i1 %or.cond50, label %.critedge4, label %.lr.ph

.lr.ph:                                           ; preds = %7, %17
  %10 = phi i8 [ %19, %17 ], [ %9, %7 ]
  %.151 = phi ptr [ %18, %17 ], [ %8, %7 ]
  %11 = icmp eq i8 %10, 92
  br i1 %11, label %12, label %16

12:                                               ; preds = %.lr.ph
  %13 = getelementptr inbounds nuw i8, ptr %.151, i64 1
  %14 = load i8, ptr %13, align 1, !tbaa !32
  %15 = icmp eq i8 %14, %6
  br i1 %15, label %17, label %16

16:                                               ; preds = %12, %.lr.ph
  br label %17

17:                                               ; preds = %12, %16
  %.sink = phi i64 [ 1, %16 ], [ 2, %12 ]
  %18 = getelementptr inbounds nuw i8, ptr %.151, i64 %.sink
  %19 = load i8, ptr %18, align 1, !tbaa !32
  %.not42 = icmp eq i8 %19, 0
  %.not43 = icmp eq i8 %19, %6
  %or.cond = or i1 %.not42, %.not43
  br i1 %or.cond, label %.critedge4, label %.lr.ph

.critedge4:                                       ; preds = %17, %7
  %.1.lcssa = phi ptr [ %8, %7 ], [ %18, %17 ]
  %.not42.lcssa = phi i1 [ %.not4248, %7 ], [ %.not42, %17 ]
  %not..not42 = xor i1 %.not42.lcssa, true
  %spec.select.idx = zext i1 %not..not42 to i64
  %spec.select = getelementptr inbounds nuw i8, ptr %.1.lcssa, i64 %spec.select.idx
  br label %22

20:                                               ; preds = %.lr.ph57
  %21 = getelementptr inbounds nuw i8, ptr %.03756, i64 1
  br label %22

22:                                               ; preds = %.critedge4, %20
  %.3 = phi ptr [ %21, %20 ], [ %spec.select, %.critedge4 ]
  %23 = load i8, ptr %.3, align 1, !tbaa !32
  %.not = icmp eq i8 %23, 0
  %.not41 = icmp eq i8 %23, %2
  %or.cond46 = or i1 %.not, %.not41
  br i1 %or.cond46, label %.critedge, label %.lr.ph57

.critedge:                                        ; preds = %22, %3
  %.037.lcssa = phi ptr [ %4, %3 ], [ %.3, %22 ]
  %.not.lcssa = phi i1 [ %.not53, %3 ], [ %.not, %22 ]
  br i1 %.not.lcssa, label %24, label %29

24:                                               ; preds = %.critedge
  %25 = tail call noalias ptr @_estrdup(ptr noundef nonnull %4) #21
  %26 = load ptr, ptr %1, align 8, !tbaa !62
  %27 = tail call i64 @strlen(ptr noundef nonnull dereferenceable(1) %26) #22
  %28 = getelementptr inbounds nuw i8, ptr %26, i64 %27
  br label %.loopexit

29:                                               ; preds = %.critedge
  %30 = ptrtoint ptr %.037.lcssa to i64
  %31 = ptrtoint ptr %4 to i64
  %32 = sub i64 %30, %31
  %33 = tail call noalias ptr @_estrndup(ptr noundef nonnull %4, i64 noundef %32) #21
  br label %34

34:                                               ; preds = %34, %29
  %.4 = phi ptr [ %.037.lcssa, %29 ], [ %37, %34 ]
  %35 = load i8, ptr %.4, align 1, !tbaa !32
  %36 = icmp eq i8 %35, %2
  %37 = getelementptr inbounds nuw i8, ptr %.4, i64 1
  br i1 %36, label %34, label %.loopexit

.loopexit:                                        ; preds = %34, %24
  %storemerge = phi ptr [ %28, %24 ], [ %.4, %34 ]
  %.0 = phi ptr [ %25, %24 ], [ %33, %34 ]
  store ptr %storemerge, ptr %1, align 8, !tbaa !62
  ret ptr %.0
}